; Function Attrs: nounwind uwtable
define dso_local void @lua_setfield(ptr noundef %0, i32 noundef %1, ptr noundef %2) local_unnamed_addr #2 {
  %4 = alloca %struct.lua_TValue, align 8
  call void @llvm.lifetime.start.p0(i64 16, ptr nonnull %4) #14
  %5 = icmp sgt i32 %1, 0
  br i1 %5, label %6, label %14

6:                                                ; preds = %3
  %7 = getelementptr inbounds nuw i8, ptr %0, i64 24
  %8 = load ptr, ptr %7, align 8, !tbaa !21
  %9 = zext nneg i32 %1 to i64
  %10 = getelementptr %struct.lua_TValue, ptr %8, i64 %9
  %11 = getelementptr i8, ptr %10, i64 -16
  %12 = getelementptr inbounds nuw i8, ptr %0, i64 16
  %13 = load ptr, ptr %12, align 8, !tbaa !4
  %.not28.i = icmp ult ptr %11, %13
  %.luaO_nilobject_.i = select i1 %.not28.i, ptr %11, ptr @luaO_nilobject_
  br label %index2adr.exit

14:                                               ; preds = %3
  %15 = icmp sgt i32 %1, -10000
  br i1 %15, label %16, label %21

16:                                               ; preds = %14
  %17 = getelementptr inbounds nuw i8, ptr %0, i64 16
  %18 = load ptr, ptr %17, align 8, !tbaa !4
  %19 = sext i32 %1 to i64
  %20 = getelementptr inbounds %struct.lua_TValue, ptr %18, i64 %19
  br label %index2adr.exit

21:                                               ; preds = %14
  switch i32 %1, label %38 [
    i32 -10000, label %22
    i32 -10001, label %26
    i32 -10002, label %36
  ]

22:                                               ; preds = %21
  %23 = getelementptr inbounds nuw i8, ptr %0, i64 32
  %24 = load ptr, ptr %23, align 8, !tbaa !29
  %25 = getelementptr inbounds nuw i8, ptr %24, i64 160
  br label %index2adr.exit

26:                                               ; preds = %21
  %27 = getelementptr inbounds nuw i8, ptr %0, i64 40
  %28 = load ptr, ptr %27, align 8, !tbaa !23
  %29 = getelementptr inbounds nuw i8, ptr %28, i64 8
  %30 = load ptr, ptr %29, align 8, !tbaa !41
  %31 = load ptr, ptr %30, align 8, !tbaa !19
  %32 = getelementptr inbounds nuw i8, ptr %0, i64 136
  %33 = getelementptr inbounds nuw i8, ptr %31, i64 24
  %34 = load ptr, ptr %33, align 8, !tbaa !19
  store ptr %34, ptr %32, align 8, !tbaa !19
  %35 = getelementptr inbounds nuw i8, ptr %0, i64 144
  store i32 5, ptr %35, align 8, !tbaa !20
  br label %index2adr.exit

36:                                               ; preds = %21
  %37 = getelementptr inbounds nuw i8, ptr %0, i64 120
  br label %index2adr.exit

38:                                               ; preds = %21
  %39 = getelementptr inbounds nuw i8, ptr %0, i64 40
  %40 = load ptr, ptr %39, align 8, !tbaa !23
  %41 = getelementptr inbounds nuw i8, ptr %40, i64 8
  %42 = load ptr, ptr %41, align 8, !tbaa !41
  %43 = load ptr, ptr %42, align 8, !tbaa !19
  %44 = sub nuw nsw i32 -10002, %1
  %45 = getelementptr inbounds nuw i8, ptr %43, i64 11
  %46 = load i8, ptr %45, align 1, !tbaa !19
  %47 = zext i8 %46 to i32
  %.not.i = icmp samesign ugt i32 %44, %47
  %48 = getelementptr inbounds nuw i8, ptr %43, i64 40
  %49 = sub nuw nsw i32 -10003, %1
  %50 = zext nneg i32 %49 to i64
  %51 = getelementptr inbounds nuw [1 x %struct.lua_TValue], ptr %48, i64 0, i64 %50
  %52 = select i1 %.not.i, ptr @luaO_nilobject_, ptr %51
  br label %index2adr.exit

index2adr.exit:                                   ; preds = %6, %16, %22, %26, %36, %38
  %.1.i = phi ptr [ %.luaO_nilobject_.i, %6 ], [ %20, %16 ], [ %52, %38 ], [ %37, %36 ], [ %32, %26 ], [ %25, %22 ]
  %53 = tail call i64 @strlen(ptr noundef nonnull dereferenceable(1) %2) #15
  %54 = tail call ptr @luaS_newlstr(ptr noundef %0, ptr noundef nonnull %2, i64 noundef %53) #14
  store ptr %54, ptr %4, align 8, !tbaa !19
  %55 = getelementptr inbounds nuw i8, ptr %4, i64 8
  store i32 4, ptr %55, align 8, !tbaa !20
  %56 = getelementptr inbounds nuw i8, ptr %0, i64 16
  %57 = load ptr, ptr %56, align 8, !tbaa !4
  %58 = getelementptr inbounds i8, ptr %57, i64 -16
  call void @luaV_settable(ptr noundef %0, ptr noundef %.1.i, ptr noundef nonnull %4, ptr noundef nonnull %58) #14
  %59 = load ptr, ptr %56, align 8, !tbaa !4
  %60 = getelementptr inbounds i8, ptr %59, i64 -16
  store ptr %60, ptr %56, align 8, !tbaa !4
  call void @llvm.lifetime.end.p0(i64 16, ptr nonnull %4) #14
  ret void
}